; Function Attrs: nounwind uwtable
define dso_local signext i16 @get_attnum(i32 noundef %0, ptr noundef %1) local_unnamed_addr #0 {
  %3 = tail call ptr @SearchSysCacheAttName(i32 noundef %0, ptr noundef %1) #8
  %.not = icmp eq ptr %3, null
  br i1 %.not, label %12, label %4

4:                                                ; preds = %2
  %5 = getelementptr i8, ptr %3, i64 16
  %.val = load ptr, ptr %5, align 8
  %6 = getelementptr inbounds nuw i8, ptr %.val, i64 22
  %7 = load i8, ptr %6, align 2
  %8 = zext i8 %7 to i64
  %9 = getelementptr inbounds nuw i8, ptr %.val, i64 %8
  %10 = getelementptr inbounds nuw i8, ptr %9, i64 74
  %11 = load i16, ptr %10, align 2
  tail call void @ReleaseSysCache(ptr noundef nonnull %3) #8
  br label %12

12:                                               ; preds = %2, %4
  %.0 = phi i16 [ %11, %4 ], [ 0, %2 ]
  ret i16 %.0
}